; ModuleID = '60/1020.c'
source_filename = "60/1020.c"
target datalayout = "e-m:e-p270:32:32-p271:32:32-p272:64:64-i64:64-f80:128-n8:16:32:64-S128"
target triple = "x86_64-pc-linux-gnu"

@.str = private unnamed_addr constant [3 x i8] c"%d\00", align 1
@.str.1 = private unnamed_addr constant [7 x i8] c"empty\0A\00", align 1
@.str.2 = private unnamed_addr constant [7 x i8] c"%d %d\0A\00", align 1

; Function Attrs: noinline nounwind uwtable
define dso_local i32 @main(i32 %0, i8** %1) #0 {
  %3 = alloca i32, align 4
  %4 = alloca i32, align 4
  %5 = alloca i8**, align 8
  %6 = alloca i32, align 4
  %7 = alloca [100 x i32], align 16
  %8 = alloca i32, align 4
  %9 = alloca i32, align 4
  %10 = alloca i32, align 4
  store i32 0, i32* %3, align 4
  store i32 %0, i32* %4, align 4
  store i8** %1, i8*** %5, align 8
  store i32 0, i32* %10, align 4
  %11 = call i32 (i8*, ...) @__isoc99_scanf(i8* getelementptr inbounds ([3 x i8], [3 x i8]* @.str, i64 0, i64 0), i32* %6)
  store i32 3, i32* %8, align 4
  br label %12

12:                                               ; preds = %43, %2
  %13 = load i32, i32* %8, align 4
  %14 = load i32, i32* %6, align 4
  %15 = icmp sle i32 %13, %14
  br i1 %15, label %16, label %46

16:                                               ; preds = %12
  store i32 2, i32* %9, align 4
  br label %17

17:                                               ; preds = %28, %16
  %18 = load i32, i32* %9, align 4
  %19 = load i32, i32* %8, align 4
  %20 = icmp slt i32 %18, %19
  br i1 %20, label %21, label %31

21:                                               ; preds = %17
  %22 = load i32, i32* %8, align 4
  %23 = load i32, i32* %9, align 4
  %24 = srem i32 %22, %23
  %25 = icmp eq i32 %24, 0
  br i1 %25, label %26, label %27

26:                                               ; preds = %21
  br label %31

27:                                               ; preds = %21
  br label %28

28:                                               ; preds = %27
  %29 = load i32, i32* %9, align 4
  %30 = add nsw i32 %29, 1
  store i32 %30, i32* %9, align 4
  br label %17

31:                                               ; preds = %26, %17
  %32 = load i32, i32* %9, align 4
  %33 = load i32, i32* %8, align 4
  %34 = icmp eq i32 %32, %33
  br i1 %34, label %35, label %42

35:                                               ; preds = %31
  %36 = load i32, i32* %8, align 4
  %37 = load i32, i32* %10, align 4
  %38 = sext i32 %37 to i64
  %39 = getelementptr inbounds [100 x i32], [100 x i32]* %7, i64 0, i64 %38
  store i32 %36, i32* %39, align 4
  %40 = load i32, i32* %10, align 4
  %41 = add nsw i32 %40, 1
  store i32 %41, i32* %10, align 4
  br label %42

42:                                               ; preds = %35, %31
  br label %43

43:                                               ; preds = %42
  %44 = load i32, i32* %8, align 4
  %45 = add nsw i32 %44, 2
  store i32 %45, i32* %8, align 4
  br label %12

46:                                               ; preds = %12
  %47 = load i32, i32* %6, align 4
  %48 = icmp slt i32 %47, 5
  br i1 %48, label %49, label %51

49:                                               ; preds = %46
  %50 = call i32 (i8*, ...) @printf(i8* getelementptr inbounds ([7 x i8], [7 x i8]* @.str.1, i64 0, i64 0))
  br label %85

51:                                               ; preds = %46
  store i32 0, i32* %8, align 4
  br label %52

52:                                               ; preds = %81, %51
  %53 = load i32, i32* %8, align 4
  %54 = load i32, i32* %10, align 4
  %55 = sub nsw i32 %54, 1
  %56 = icmp slt i32 %53, %55
  br i1 %56, label %57, label %84

57:                                               ; preds = %52
  %58 = load i32, i32* %8, align 4
  %59 = sext i32 %58 to i64
  %60 = getelementptr inbounds [100 x i32], [100 x i32]* %7, i64 0, i64 %59
  %61 = load i32, i32* %60, align 4
  %62 = add nsw i32 %61, 2
  %63 = load i32, i32* %8, align 4
  %64 = add nsw i32 %63, 1
  %65 = sext i32 %64 to i64
  %66 = getelementptr inbounds [100 x i32], [100 x i32]* %7, i64 0, i64 %65
  %67 = load i32, i32* %66, align 4
  %68 = icmp eq i32 %62, %67
  br i1 %68, label %69, label %80

69:                                               ; preds = %57
  %70 = load i32, i32* %8, align 4
  %71 = sext i32 %70 to i64
  %72 = getelementptr inbounds [100 x i32], [100 x i32]* %7, i64 0, i64 %71
  %73 = load i32, i32* %72, align 4
  %74 = load i32, i32* %8, align 4
  %75 = add nsw i32 %74, 1
  %76 = sext i32 %75 to i64
  %77 = getelementptr inbounds [100 x i32], [100 x i32]* %7, i64 0, i64 %76
  %78 = load i32, i32* %77, align 4
  %79 = call i32 (i8*, ...) @printf(i8* getelementptr inbounds ([7 x i8], [7 x i8]* @.str.2, i64 0, i64 0), i32 %73, i32 %78)
  br label %80

80:                                               ; preds = %69, %57
  br label %81

81:                                               ; preds = %80
  %82 = load i32, i32* %8, align 4
  %83 = add nsw i32 %82, 1
  store i32 %83, i32* %8, align 4
  br label %52

84:                                               ; preds = %52
  br label %85

85:                                               ; preds = %84, %49
  ret i32 0
}

declare dso_local i32 @__isoc99_scanf(i8*, ...) #1

declare dso_local i32 @printf(i8*, ...) #1


!llvm.module.flags = !{!0}
!llvm.ident = !{!1}

!0 = !{i32 1, !"wchar_size", i32 4}
!1 = !{!"clang version 10.0.0-4ubuntu1 "}
