; ModuleID = 'source-C-CXX/59/1020.c'
source_filename = "source-C-CXX/59/1020.c"
target datalayout = "e-m:e-p270:32:32-p271:32:32-p272:64:64-i64:64-f80:128-n8:16:32:64-S128"
target triple = "x86_64-pc-linux-gnu"

@.str = private unnamed_addr constant [3 x i8] c"%d\00", align 1
@.str.2 = private unnamed_addr constant [7 x i8] c"%d %d\0A\00", align 1
@str = private unnamed_addr constant [6 x i8] c"empty\00", align 1

; Function Attrs: nofree nounwind sspstrong uwtable
define dso_local i32 @main(i32 %0, i8** nocapture readnone %1) local_unnamed_addr #0 {
  %3 = alloca i32, align 4
  %4 = alloca [100 x i32], align 16
  %5 = bitcast i32* %3 to i8*
  call void @llvm.lifetime.start.p0i8(i64 4, i8* nonnull %5) #4
  %6 = bitcast [100 x i32]* %4 to i8*
  call void @llvm.lifetime.start.p0i8(i64 400, i8* nonnull %6) #4
  %7 = call i32 (i8*, ...) @__isoc99_scanf(i8* getelementptr inbounds ([3 x i8], [3 x i8]* @.str, i64 0, i64 0), i32* nonnull %3)
  %8 = load i32, i32* %3, align 4, !tbaa !5
  %9 = icmp slt i32 %8, 3
  br i1 %9, label %39, label %10

10:                                               ; preds = %2, %26
  %11 = phi i32 [ %27, %26 ], [ 0, %2 ]
  %12 = phi i32 [ %28, %26 ], [ 3, %2 ]
  br label %13

13:                                               ; preds = %10, %17
  %14 = phi i32 [ 2, %10 ], [ %18, %17 ]
  %15 = urem i32 %12, %14
  %16 = icmp eq i32 %15, 0
  br i1 %16, label %20, label %17

17:                                               ; preds = %13
  %18 = add nuw nsw i32 %14, 1
  %19 = icmp eq i32 %18, %12
  br i1 %19, label %22, label %13, !llvm.loop !9

20:                                               ; preds = %13
  %21 = icmp eq i32 %14, %12
  br i1 %21, label %22, label %26

22:                                               ; preds = %17, %20
  %23 = sext i32 %11 to i64
  %24 = getelementptr inbounds [100 x i32], [100 x i32]* %4, i64 0, i64 %23
  store i32 %12, i32* %24, align 4, !tbaa !5
  %25 = add nsw i32 %11, 1
  br label %26

26:                                               ; preds = %20, %22
  %27 = phi i32 [ %25, %22 ], [ %11, %20 ]
  %28 = add nuw nsw i32 %12, 2
  %29 = icmp sgt i32 %28, %8
  br i1 %29, label %30, label %10, !llvm.loop !11

30:                                               ; preds = %26
  %31 = icmp slt i32 %8, 5
  br i1 %31, label %39, label %32

32:                                               ; preds = %30
  %33 = icmp sgt i32 %27, 1
  br i1 %33, label %34, label %53

34:                                               ; preds = %32
  %35 = add nsw i32 %27, -1
  %36 = zext i32 %35 to i64
  %37 = getelementptr inbounds [100 x i32], [100 x i32]* %4, i64 0, i64 0
  %38 = load i32, i32* %37, align 16, !tbaa !5
  br label %41

39:                                               ; preds = %2, %30
  %40 = call i32 @puts(i8* nonnull dereferenceable(1) getelementptr inbounds ([6 x i8], [6 x i8]* @str, i64 0, i64 0))
  br label %53

41:                                               ; preds = %34, %51
  %42 = phi i32 [ %38, %34 ], [ %47, %51 ]
  %43 = phi i64 [ 0, %34 ], [ %45, %51 ]
  %44 = add nsw i32 %42, 2
  %45 = add nuw nsw i64 %43, 1
  %46 = getelementptr inbounds [100 x i32], [100 x i32]* %4, i64 0, i64 %45
  %47 = load i32, i32* %46, align 4, !tbaa !5
  %48 = icmp eq i32 %44, %47
  br i1 %48, label %49, label %51

49:                                               ; preds = %41
  %50 = call i32 (i8*, ...) @printf(i8* nonnull dereferenceable(1) getelementptr inbounds ([7 x i8], [7 x i8]* @.str.2, i64 0, i64 0), i32 %42, i32 %44)
  br label %51

51:                                               ; preds = %41, %49
  %52 = icmp eq i64 %45, %36
  br i1 %52, label %53, label %41, !llvm.loop !12

53:                                               ; preds = %51, %32, %39
  call void @llvm.lifetime.end.p0i8(i64 400, i8* nonnull %6) #4
  call void @llvm.lifetime.end.p0i8(i64 4, i8* nonnull %5) #4
  ret i32 0
}

; Function Attrs: argmemonly mustprogress nofree nosync nounwind willreturn
declare void @llvm.lifetime.start.p0i8(i64 immarg, i8* nocapture) #1

; Function Attrs: nofree nounwind
declare noundef i32 @__isoc99_scanf(i8* nocapture noundef readonly, ...) local_unnamed_addr #2

; Function Attrs: nofree nounwind
declare noundef i32 @printf(i8* nocapture noundef readonly, ...) local_unnamed_addr #2

; Function Attrs: argmemonly mustprogress nofree nosync nounwind willreturn
declare void @llvm.lifetime.end.p0i8(i64 immarg, i8* nocapture) #1

; Function Attrs: nofree nounwind
declare noundef i32 @puts(i8* nocapture noundef readonly) local_unnamed_addr #3


!llvm.module.flags = !{!0, !1, !2, !3}
!llvm.ident = !{!4}

!0 = !{i32 1, !"wchar_size", i32 4}
!1 = !{i32 7, !"PIC Level", i32 2}
!2 = !{i32 7, !"PIE Level", i32 2}
!3 = !{i32 7, !"uwtable", i32 1}
!4 = !{!"clang version 13.0.0"}
!5 = !{!6, !6, i64 0}
!6 = !{!"int", !7, i64 0}
!7 = !{!"omnipotent char", !8, i64 0}
!8 = !{!"Simple C/C++ TBAA"}
!9 = distinct !{!9, !10}
!10 = !{!"llvm.loop.mustprogress"}
!11 = distinct !{!11, !10}
!12 = distinct !{!12, !10}
